target datalayout = "e-m:e-p270:32:32-p271:32:32-p272:64:64-i64:64-i128:128-f80:128-n8:16:32:64-S128"
target triple = "x86_64-pc-linux-gnu"

%struct.RBasic = type { i64, i64 }

@rb_eRuntimeError = external global i64, align 8
@.str.69 = private unnamed_addr constant [50 x i8] c"class variable % li\0B of %li\0B is overtaken by %li\0B\00", align 1

; Function Attrs: inlinehint nounwind sspstrong willreturn memory(read) uwtable
define internal i32 @RB_BUILTIN_TYPE(i64 noundef %0) #2 {
  %2 = alloca i64, align 8
  %3 = alloca i64, align 8
  store i64 %0, ptr %2, align 8, !tbaa !14
  call void @llvm.lifetime.start.p0(i64 8, ptr %3) #30
  %4 = load i64, ptr %2, align 8, !tbaa !14
  %5 = inttoptr i64 %4 to ptr
  %6 = getelementptr inbounds nuw %struct.RBasic, ptr %5, i32 0, i32 0
  %7 = load i64, ptr %6, align 8, !tbaa !102
  %8 = and i64 %7, 31
  store i64 %8, ptr %3, align 8, !tbaa !14
  %9 = load i64, ptr %3, align 8, !tbaa !14
  %10 = trunc i64 %9 to i32
  call void @llvm.lifetime.end.p0(i64 8, ptr %3) #30
  ret i32 %10
}

; Function Attrs: nounwind sspstrong uwtable
define internal void @cvar_overtaken(i64 noundef %0, i64 noundef %1, i64 noundef %2) #0 {
  %4 = alloca i64, align 8
  %5 = alloca i64, align 8
  %6 = alloca i64, align 8
  %7 = alloca i64, align 8
  store i64 %0, ptr %4, align 8, !tbaa !14
  store i64 %1, ptr %5, align 8, !tbaa !14
  store i64 %2, ptr %6, align 8, !tbaa !14
  %8 = load i64, ptr %4, align 8, !tbaa !14
  %9 = icmp ne i64 %8, 0
  br i1 %9, label %10, label %56

10:                                               ; preds = %3
  %11 = load i64, ptr %5, align 8, !tbaa !14
  %12 = load i64, ptr %4, align 8, !tbaa !14
  %13 = icmp ne i64 %11, %12
  br i1 %13, label %14, label %56

14:                                               ; preds = %10
  %15 = load i64, ptr %4, align 8, !tbaa !14
  %16 = call i64 @original_module(i64 noundef %15)
  %17 = load i64, ptr %5, align 8, !tbaa !14
  %18 = call i64 @original_module(i64 noundef %17)
  %19 = icmp ne i64 %16, %18
  br i1 %19, label %20, label %47

20:                                               ; preds = %14
  %21 = load i64, ptr @rb_eRuntimeError, align 8, !tbaa !14
  %22 = load i64, ptr %6, align 8, !tbaa !14
  %23 = call i1 @llvm.is.constant.i64(i64 %22)
  br i1 %23, label %24, label %35

24:                                               ; preds = %20
  %25 = load i64, ptr %6, align 8, !tbaa !14
  %26 = and i64 %25, 1
  %27 = icmp ne i64 %26, 0
  br i1 %27, label %31, label %28

28:                                               ; preds = %24
  %29 = load i64, ptr %6, align 8, !tbaa !14
  %30 = icmp ugt i64 %29, 170
  br i1 %30, label %35, label %31

31:                                               ; preds = %28, %24
  %32 = load i64, ptr %6, align 8, !tbaa !14
  %33 = shl i64 %32, 8
  %34 = or i64 %33, 12
  br label %38

35:                                               ; preds = %28, %20
  %36 = load i64, ptr %6, align 8, !tbaa !14
  %37 = call i64 @rb_id2sym(i64 noundef %36)
  br label %38

38:                                               ; preds = %35, %31
  %39 = phi i64 [ %34, %31 ], [ %37, %35 ]
  store i64 %39, ptr %7, align 8, !tbaa !14
  %40 = load i64, ptr %7, align 8, !tbaa !14
  %41 = load i64, ptr %4, align 8, !tbaa !14
  %42 = call i64 @original_module(i64 noundef %41)
  %43 = call i64 @rb_class_name(i64 noundef %42)
  %44 = load i64, ptr %5, align 8, !tbaa !14
  %45 = call i64 @original_module(i64 noundef %44)
  %46 = call i64 @rb_class_name(i64 noundef %45)
  call void (i64, ptr, ...) @rb_raise(i64 noundef %21, ptr noundef @.str.69, i64 noundef %40, i64 noundef %43, i64 noundef %46) #31
  unreachable

47:                                               ; preds = %14
  %48 = load i64, ptr %4, align 8, !tbaa !14
  %49 = call i32 @RB_BUILTIN_TYPE(i64 noundef %48) #29
  %50 = icmp eq i32 %49, 2
  br i1 %50, label %51, label %55

51:                                               ; preds = %47
  %52 = load i64, ptr %4, align 8, !tbaa !14
  %53 = load i64, ptr %6, align 8, !tbaa !14
  %54 = call i64 @rb_ivar_delete(i64 noundef %52, i64 noundef %53, i64 noundef 36)
  br label %55

55:                                               ; preds = %51, %47
  br label %56

56:                                               ; preds = %55, %10, %3
  ret void
}