; Function Attrs: nounwind sspstrong uwtable
define internal fastcc void @cvar_overtaken(i64 noundef %0, i64 noundef range(i64 1, 0) %1, i64 noundef %2) unnamed_addr #0 {
  %.not = icmp eq i64 %0, 0
  %.not18 = icmp eq i64 %1, %0
  %or.cond20 = or i1 %.not, %.not18
  br i1 %or.cond20, label %35, label %4

4:                                                ; preds = %3
  %5 = and i64 %0, 7
  %.not24 = icmp eq i64 %5, 0
  br i1 %.not24, label %rbimpl_RB_TYPE_P_fastpath.exit.i, label %original_module.exit

rbimpl_RB_TYPE_P_fastpath.exit.i:                 ; preds = %4
  %6 = inttoptr i64 %0 to ptr
  %7 = load i64, ptr %6, align 8, !tbaa !28
  %8 = and i64 %7, 31
  %9 = icmp eq i64 %8, 28
  br i1 %9, label %10, label %original_module.exit

10:                                               ; preds = %rbimpl_RB_TYPE_P_fastpath.exit.i
  %11 = getelementptr inbounds nuw i8, ptr %6, i64 8
  %12 = load i64, ptr %11, align 8, !tbaa !36
  br label %original_module.exit

original_module.exit:                             ; preds = %4, %rbimpl_RB_TYPE_P_fastpath.exit.i, %10
  %.0.i = phi i64 [ %12, %10 ], [ %0, %rbimpl_RB_TYPE_P_fastpath.exit.i ], [ %0, %4 ]
  %13 = and i64 %1, 7
  %.not25 = icmp eq i64 %13, 0
  br i1 %.not25, label %rbimpl_RB_TYPE_P_fastpath.exit.i21, label %original_module.exit23

rbimpl_RB_TYPE_P_fastpath.exit.i21:               ; preds = %original_module.exit
  %14 = inttoptr i64 %1 to ptr
  %15 = load i64, ptr %14, align 8, !tbaa !28
  %16 = and i64 %15, 31
  %17 = icmp eq i64 %16, 28
  br i1 %17, label %18, label %original_module.exit23

18:                                               ; preds = %rbimpl_RB_TYPE_P_fastpath.exit.i21
  %19 = getelementptr inbounds nuw i8, ptr %14, i64 8
  %20 = load i64, ptr %19, align 8, !tbaa !36
  br label %original_module.exit23

original_module.exit23:                           ; preds = %original_module.exit, %rbimpl_RB_TYPE_P_fastpath.exit.i21, %18
  %.0.i22 = phi i64 [ %20, %18 ], [ %1, %rbimpl_RB_TYPE_P_fastpath.exit.i21 ], [ %1, %original_module.exit ]
  %.not19 = icmp eq i64 %.0.i, %.0.i22
  br i1 %.not19, label %28, label %21

21:                                               ; preds = %original_module.exit23
  %22 = load i64, ptr @rb_eRuntimeError, align 8, !tbaa !14
  %23 = tail call i64 @rb_id2sym(i64 noundef %2) #27
  %24 = tail call fastcc i64 @original_module(i64 noundef %0)
  %25 = tail call i64 @rb_class_name(i64 noundef %24)
  %26 = tail call fastcc i64 @original_module(i64 noundef %1)
  %27 = tail call i64 @rb_class_name(i64 noundef %26)
  tail call void (i64, ptr, ...) @rb_raise(i64 noundef %22, ptr noundef nonnull @.str.69, i64 noundef %23, i64 noundef %25, i64 noundef %27) #28
  unreachable

28:                                               ; preds = %original_module.exit23
  %29 = inttoptr i64 %0 to ptr
  %30 = load i64, ptr %29, align 8, !tbaa !28
  %31 = and i64 %30, 31
  %32 = icmp eq i64 %31, 2
  br i1 %32, label %33, label %35

33:                                               ; preds = %28
  %34 = tail call fastcc i64 @rb_ivar_delete(i64 noundef %0, i64 noundef %2, i64 noundef 36)
  br label %35

35:                                               ; preds = %28, %33, %3
  ret void
}